target datalayout = "e-m:e-p270:32:32-p271:32:32-p272:64:64-i64:64-i128:128-f80:128-n8:16:32:64-S128"
target triple = "x86_64-pc-linux-gnu"

%struct.cli_hashset = type { ptr, ptr, ptr, i32, i32, i32, i32 }

@.str.16 = private unnamed_addr constant [57 x i8] c"hashtab: Invalid load factor: %u, using default of 80%%\0A\00", align 1
@.str.19 = private unnamed_addr constant [56 x i8] c"hashtab.c: Unable to allocate memory pool for hs->keys\0A\00", align 1
@.str.20 = private unnamed_addr constant [62 x i8] c"hashtab.c: Unable to allocate/initialize memory for hs->keys\0A\00", align 1

; Function Attrs: nounwind uwtable
define internal i64 @nearest_power(i64 noundef %0) #0 {
  %2 = alloca i64, align 8
  %3 = alloca i64, align 8
  %4 = alloca i64, align 8
  store i64 %0, ptr %3, align 8
  store i64 64, ptr %4, align 8
  br label %5

5:                                                ; preds = %16, %1
  %6 = load i64, ptr %4, align 8
  %7 = load i64, ptr %3, align 8
  %8 = icmp ult i64 %6, %7
  br i1 %8, label %9, label %17

9:                                                ; preds = %5
  %10 = load i64, ptr %4, align 8
  %11 = shl i64 %10, 1
  store i64 %11, ptr %4, align 8
  %12 = load i64, ptr %4, align 8
  %13 = icmp eq i64 %12, 0
  br i1 %13, label %14, label %16

14:                                               ; preds = %9
  %15 = load i64, ptr %3, align 8
  store i64 %15, ptr %2, align 8
  br label %19

16:                                               ; preds = %9
  br label %5

17:                                               ; preds = %5
  %18 = load i64, ptr %4, align 8
  store i64 %18, ptr %2, align 8
  br label %19

19:                                               ; preds = %17, %14
  %20 = load i64, ptr %2, align 8
  ret i64 %20
}

; Function Attrs: nounwind uwtable
define i32 @cli_hashset_init_pool(ptr noundef %0, i64 noundef %1, i8 noundef zeroext %2, ptr noundef %3) #0 {
  %5 = alloca i32, align 4
  %6 = alloca ptr, align 8
  %7 = alloca i64, align 8
  %8 = alloca i8, align 1
  %9 = alloca ptr, align 8
  store ptr %0, ptr %6, align 8
  store i64 %1, ptr %7, align 8
  store i8 %2, ptr %8, align 1
  store ptr %3, ptr %9, align 8
  %10 = load i8, ptr %8, align 1
  %11 = zext i8 %10 to i32
  %12 = icmp slt i32 %11, 50
  br i1 %12, label %17, label %13

13:                                               ; preds = %4
  %14 = load i8, ptr %8, align 1
  %15 = zext i8 %14 to i32
  %16 = icmp sgt i32 %15, 99
  br i1 %16, label %17, label %20

17:                                               ; preds = %13, %4
  %18 = load i8, ptr %8, align 1
  %19 = zext i8 %18 to i32
  call void (ptr, ...) @cli_dbgmsg(ptr noundef @.str.16, i32 noundef %19)
  store i8 80, ptr %8, align 1
  br label %20

20:                                               ; preds = %17, %13
  %21 = load i64, ptr %7, align 8
  %22 = call i64 @nearest_power(i64 noundef %21)
  store i64 %22, ptr %7, align 8
  %23 = load i64, ptr %7, align 8
  %24 = load i8, ptr %8, align 1
  %25 = zext i8 %24 to i64
  %26 = mul i64 %23, %25
  %27 = udiv i64 %26, 100
  %28 = trunc i64 %27 to i32
  %29 = load ptr, ptr %6, align 8
  %30 = getelementptr inbounds %struct.cli_hashset, ptr %29, i32 0, i32 6
  store i32 %28, ptr %30, align 4
  %31 = load i64, ptr %7, align 8
  %32 = trunc i64 %31 to i32
  %33 = load ptr, ptr %6, align 8
  %34 = getelementptr inbounds %struct.cli_hashset, ptr %33, i32 0, i32 3
  store i32 %32, ptr %34, align 8
  %35 = load i64, ptr %7, align 8
  %36 = sub i64 %35, 1
  %37 = trunc i64 %36 to i32
  %38 = load ptr, ptr %6, align 8
  %39 = getelementptr inbounds %struct.cli_hashset, ptr %38, i32 0, i32 4
  store i32 %37, ptr %39, align 4
  %40 = load ptr, ptr %6, align 8
  %41 = getelementptr inbounds %struct.cli_hashset, ptr %40, i32 0, i32 5
  store i32 0, ptr %41, align 8
  %42 = load ptr, ptr %9, align 8
  %43 = load ptr, ptr %6, align 8
  %44 = getelementptr inbounds %struct.cli_hashset, ptr %43, i32 0, i32 2
  store ptr %42, ptr %44, align 8
  %45 = load ptr, ptr %9, align 8
  %46 = load i64, ptr %7, align 8
  %47 = mul i64 %46, 4
  %48 = call ptr @mpool_malloc(ptr noundef %45, i64 noundef %47)
  %49 = load ptr, ptr %6, align 8
  %50 = getelementptr inbounds %struct.cli_hashset, ptr %49, i32 0, i32 0
  store ptr %48, ptr %50, align 8
  %51 = load ptr, ptr %6, align 8
  %52 = getelementptr inbounds %struct.cli_hashset, ptr %51, i32 0, i32 0
  %53 = load ptr, ptr %52, align 8
  %54 = icmp ne ptr %53, null
  br i1 %54, label %56, label %55

55:                                               ; preds = %20
  call void (ptr, ...) @cli_errmsg(ptr noundef @.str.19)
  store i32 20, ptr %5, align 4
  br label %73

56:                                               ; preds = %20
  %57 = load ptr, ptr %9, align 8
  %58 = load i64, ptr %7, align 8
  %59 = lshr i64 %58, 5
  %60 = call ptr @mpool_calloc(ptr noundef %57, i64 noundef %59, i64 noundef 4)
  %61 = load ptr, ptr %6, align 8
  %62 = getelementptr inbounds %struct.cli_hashset, ptr %61, i32 0, i32 1
  store ptr %60, ptr %62, align 8
  %63 = load ptr, ptr %6, align 8
  %64 = getelementptr inbounds %struct.cli_hashset, ptr %63, i32 0, i32 1
  %65 = load ptr, ptr %64, align 8
  %66 = icmp ne ptr %65, null
  br i1 %66, label %72, label %67

67:                                               ; preds = %56
  %68 = load ptr, ptr %9, align 8
  %69 = load ptr, ptr %6, align 8
  %70 = getelementptr inbounds %struct.cli_hashset, ptr %69, i32 0, i32 0
  %71 = load ptr, ptr %70, align 8
  call void @mpool_free(ptr noundef %68, ptr noundef %71)
  call void (ptr, ...) @cli_errmsg(ptr noundef @.str.20)
  store i32 20, ptr %5, align 4
  br label %73

72:                                               ; preds = %56
  store i32 0, ptr %5, align 4
  br label %73

73:                                               ; preds = %72, %67, %55
  %74 = load i32, ptr %5, align 4
  ret i32 %74
}