; Function Attrs: nounwind uwtable
define noundef i32 @cli_hashset_init_pool(ptr nocapture noundef %0, i64 noundef %1, i8 noundef zeroext %2, ptr noundef %3) local_unnamed_addr #0 {
  %5 = add i8 %2, -100
  %or.cond = icmp ult i8 %5, -50
  br i1 %or.cond, label %6, label %8

6:                                                ; preds = %4
  %7 = zext i8 %2 to i32
  tail call void (ptr, ...) @cli_dbgmsg(ptr noundef nonnull @.str.16, i32 noundef %7) #18
  br label %8

8:                                                ; preds = %4, %6
  %.026 = phi i8 [ 80, %6 ], [ %2, %4 ]
  br label %9

9:                                                ; preds = %11, %8
  %.0.i = phi i64 [ 64, %8 ], [ %12, %11 ]
  %10 = icmp ult i64 %.0.i, %1
  br i1 %10, label %11, label %nearest_power.exit

11:                                               ; preds = %9
  %12 = shl i64 %.0.i, 1
  %13 = icmp eq i64 %12, 0
  br i1 %13, label %nearest_power.exit, label %9

nearest_power.exit:                               ; preds = %9, %11
  %.07.i = phi i64 [ %1, %11 ], [ %.0.i, %9 ]
  %14 = zext i8 %.026 to i64
  %15 = mul i64 %.07.i, %14
  %16 = udiv i64 %15, 100
  %17 = trunc i64 %16 to i32
  %18 = getelementptr inbounds i8, ptr %0, i64 36
  store i32 %17, ptr %18, align 4
  %19 = trunc i64 %.07.i to i32
  %20 = getelementptr inbounds i8, ptr %0, i64 24
  store i32 %19, ptr %20, align 8
  %21 = add i32 %19, -1
  %22 = getelementptr inbounds i8, ptr %0, i64 28
  store i32 %21, ptr %22, align 4
  %23 = getelementptr inbounds i8, ptr %0, i64 32
  store i32 0, ptr %23, align 8
  %24 = getelementptr inbounds i8, ptr %0, i64 16
  store ptr %3, ptr %24, align 8
  %25 = shl i64 %.07.i, 2
  %26 = tail call ptr @mpool_malloc(ptr noundef %3, i64 noundef %25) #18
  store ptr %26, ptr %0, align 8
  %.not = icmp eq ptr %26, null
  br i1 %.not, label %.sink.split, label %27

27:                                               ; preds = %nearest_power.exit
  %28 = lshr i64 %.07.i, 5
  %29 = tail call ptr @mpool_calloc(ptr noundef %3, i64 noundef %28, i64 noundef 4) #18
  %30 = getelementptr inbounds i8, ptr %0, i64 8
  store ptr %29, ptr %30, align 8
  %.not27 = icmp eq ptr %29, null
  br i1 %.not27, label %31, label %33

31:                                               ; preds = %27
  %32 = load ptr, ptr %0, align 8
  tail call void @mpool_free(ptr noundef %3, ptr noundef %32) #18
  br label %.sink.split

.sink.split:                                      ; preds = %nearest_power.exit, %31
  %.str.20.sink = phi ptr [ @.str.20, %31 ], [ @.str.19, %nearest_power.exit ]
  tail call void (ptr, ...) @cli_errmsg(ptr noundef nonnull %.str.20.sink) #18
  br label %33

33:                                               ; preds = %.sink.split, %27
  %.0 = phi i32 [ 0, %27 ], [ 20, %.sink.split ]
  ret i32 %.0
}